target datalayout = "e-m:e-p270:32:32-p271:32:32-p272:64:64-i64:64-i128:128-f80:128-n8:16:32:64-S128"
target triple = "x86_64-pc-linux-gnu"

%struct._zend_ptr_stack = type { i32, i32, ptr, ptr, i8 }
%struct.__va_list_tag = type { i32, i32, ptr, ptr }

; Function Attrs: nounwind uwtable
define void @zend_ptr_stack_n_pop(ptr noundef %0, i32 noundef %1, ...) #0 {
  %3 = alloca ptr, align 8
  %4 = alloca i32, align 4
  %5 = alloca [1 x %struct.__va_list_tag], align 16
  %6 = alloca ptr, align 8
  store ptr %0, ptr %3, align 8
  store i32 %1, ptr %4, align 4
  %7 = getelementptr inbounds [1 x %struct.__va_list_tag], ptr %5, i64 0, i64 0
  call void @llvm.va_start(ptr %7)
  br label %8

8:                                                ; preds = %25, %2
  %9 = load i32, ptr %4, align 4
  %10 = icmp sgt i32 %9, 0
  br i1 %10, label %11, label %40

11:                                               ; preds = %8
  %12 = getelementptr inbounds [1 x %struct.__va_list_tag], ptr %5, i64 0, i64 0
  %13 = getelementptr inbounds %struct.__va_list_tag, ptr %12, i32 0, i32 0
  %14 = load i32, ptr %13, align 16
  %15 = icmp ule i32 %14, 40
  br i1 %15, label %16, label %21

16:                                               ; preds = %11
  %17 = getelementptr inbounds %struct.__va_list_tag, ptr %12, i32 0, i32 3
  %18 = load ptr, ptr %17, align 16
  %19 = getelementptr i8, ptr %18, i32 %14
  %20 = add i32 %14, 8
  store i32 %20, ptr %13, align 16
  br label %25

21:                                               ; preds = %11
  %22 = getelementptr inbounds %struct.__va_list_tag, ptr %12, i32 0, i32 2
  %23 = load ptr, ptr %22, align 8
  %24 = getelementptr i8, ptr %23, i32 8
  store ptr %24, ptr %22, align 8
  br label %25

25:                                               ; preds = %21, %16
  %26 = phi ptr [ %19, %16 ], [ %23, %21 ]
  %27 = load ptr, ptr %26, align 8
  store ptr %27, ptr %6, align 8
  %28 = load ptr, ptr %3, align 8
  %29 = getelementptr inbounds %struct._zend_ptr_stack, ptr %28, i32 0, i32 3
  %30 = load ptr, ptr %29, align 8
  %31 = getelementptr inbounds ptr, ptr %30, i32 -1
  store ptr %31, ptr %29, align 8
  %32 = load ptr, ptr %31, align 8
  %33 = load ptr, ptr %6, align 8
  store ptr %32, ptr %33, align 8
  %34 = load ptr, ptr %3, align 8
  %35 = getelementptr inbounds %struct._zend_ptr_stack, ptr %34, i32 0, i32 0
  %36 = load i32, ptr %35, align 8
  %37 = add nsw i32 %36, -1
  store i32 %37, ptr %35, align 8
  %38 = load i32, ptr %4, align 4
  %39 = add nsw i32 %38, -1
  store i32 %39, ptr %4, align 4
  br label %8

40:                                               ; preds = %8
  %41 = getelementptr inbounds [1 x %struct.__va_list_tag], ptr %5, i64 0, i64 0
  call void @llvm.va_end(ptr %41)
  ret void
}