; Function Attrs: nofree norecurse nosync nounwind uwtable
define void @zend_ptr_stack_n_pop(ptr nocapture noundef %0, i32 noundef %1, ...) local_unnamed_addr #4 {
  %3 = alloca [1 x %struct.__va_list_tag], align 16
  call void @llvm.va_start(ptr nonnull %3)
  %4 = icmp sgt i32 %1, 0
  br i1 %4, label %.lr.ph, label %._crit_edge

.lr.ph:                                           ; preds = %2
  %5 = getelementptr inbounds i8, ptr %3, i64 8
  %6 = getelementptr inbounds i8, ptr %3, i64 16
  %7 = getelementptr inbounds i8, ptr %0, i64 16
  br label %8

8:                                                ; preds = %.lr.ph, %19
  %.05 = phi i32 [ %1, %.lr.ph ], [ %27, %19 ]
  %9 = load i32, ptr %3, align 16
  %10 = icmp ult i32 %9, 41
  br i1 %10, label %11, label %16

11:                                               ; preds = %8
  %12 = load ptr, ptr %6, align 16
  %13 = zext nneg i32 %9 to i64
  %14 = getelementptr i8, ptr %12, i64 %13
  %15 = add nuw nsw i32 %9, 8
  store i32 %15, ptr %3, align 16
  br label %19

16:                                               ; preds = %8
  %17 = load ptr, ptr %5, align 8
  %18 = getelementptr i8, ptr %17, i64 8
  store ptr %18, ptr %5, align 8
  br label %19

19:                                               ; preds = %16, %11
  %20 = phi ptr [ %14, %11 ], [ %17, %16 ]
  %21 = load ptr, ptr %20, align 8
  %22 = load ptr, ptr %7, align 8
  %23 = getelementptr inbounds i8, ptr %22, i64 -8
  store ptr %23, ptr %7, align 8
  %24 = load ptr, ptr %23, align 8
  store ptr %24, ptr %21, align 8
  %25 = load i32, ptr %0, align 8
  %26 = add nsw i32 %25, -1
  store i32 %26, ptr %0, align 8
  %27 = add nsw i32 %.05, -1
  %28 = icmp sgt i32 %.05, 1
  br i1 %28, label %8, label %._crit_edge

._crit_edge:                                      ; preds = %19, %2
  call void @llvm.va_end(ptr nonnull %3)
  ret void
}